target datalayout = "e-m:e-p270:32:32-p271:32:32-p272:64:64-i64:64-i128:128-f80:128-n8:16:32:64-S128"
target triple = "x86_64-pc-linux-gnu"

; Function Attrs: mustprogress nounwind uwtable
define linkonce_odr hidden noundef i32 @_ZN14Deoptimization19trap_request_reasonEi(i32 noundef %0) #1 comdat align 2 {
  %2 = alloca i32, align 4
  %3 = alloca i32, align 4
  store i32 %0, ptr %3, align 4
  %4 = load i32, ptr %3, align 4
  %5 = icmp slt i32 %4, 0
  br i1 %5, label %6, label %13

6:                                                ; preds = %1
  %7 = load i32, ptr %3, align 4
  %8 = xor i32 %7, -1
  %9 = ashr i32 %8, 3
  %10 = sext i32 %9 to i64
  %11 = and i64 %10, 31
  %12 = trunc i64 %11 to i32
  store i32 %12, ptr %2, align 4
  br label %14

13:                                               ; preds = %1
  store i32 9, ptr %2, align 4
  br label %14

14:                                               ; preds = %13, %6
  %15 = load i32, ptr %2, align 4
  ret i32 %15
}

; Function Attrs: mustprogress nounwind uwtable
define hidden noundef i32 @_ZN23RegularPredicateWithUCT20uncommon_trap_reasonEP10IfProjNode(ptr noundef %0) #1 align 2 {
  %2 = alloca i32, align 4
  %3 = alloca ptr, align 8
  %4 = alloca ptr, align 8
  store ptr %0, ptr %3, align 8
  %5 = load ptr, ptr %3, align 8
  %6 = call noundef ptr @_ZNK8ProjNode27is_uncommon_trap_if_patternEN14Deoptimization11DeoptReasonE(ptr noundef nonnull align 8 dereferenceable(57) %5, i32 noundef 0)
  store ptr %6, ptr %4, align 8
  %7 = load ptr, ptr %4, align 8
  %8 = icmp eq ptr %7, null
  br i1 %8, label %9, label %10

9:                                                ; preds = %1
  store i32 0, ptr %2, align 4
  br label %14

10:                                               ; preds = %1
  %11 = load ptr, ptr %4, align 8
  %12 = call noundef i32 @_ZNK18CallStaticJavaNode21uncommon_trap_requestEv(ptr noundef nonnull align 8 dereferenceable(145) %11)
  %13 = call noundef i32 @_ZN14Deoptimization19trap_request_reasonEi(i32 noundef %12)
  store i32 %13, ptr %2, align 4
  br label %14

14:                                               ; preds = %10, %9
  %15 = load i32, ptr %2, align 4
  ret i32 %15
}