; Function Attrs: mustprogress nounwind uwtable
define hidden noundef i32 @_ZN23RegularPredicateWithUCT20uncommon_trap_reasonEP10IfProjNode(ptr noundef nonnull %0) local_unnamed_addr #0 align 2 {
  %2 = tail call noundef ptr @_ZNK8ProjNode27is_uncommon_trap_if_patternEN14Deoptimization11DeoptReasonE(ptr noundef nonnull align 8 dereferenceable(57) %0, i32 noundef 0) #8
  %3 = icmp eq ptr %2, null
  br i1 %3, label %10, label %4

4:                                                ; preds = %1
  %5 = tail call noundef i32 @_ZNK18CallStaticJavaNode21uncommon_trap_requestEv(ptr noundef nonnull align 8 dereferenceable(145) %2) #8
  %6 = icmp slt i32 %5, 0
  %7 = xor i32 %5, -1
  %8 = lshr i32 %7, 3
  %9 = and i32 %8, 31
  %.0.i = select i1 %6, i32 %9, i32 9
  br label %10

10:                                               ; preds = %1, %4
  %.0 = phi i32 [ %.0.i, %4 ], [ 0, %1 ]
  ret i32 %.0
}